target datalayout = "e-m:e-p270:32:32-p271:32:32-p272:64:64-i64:64-i128:128-f80:128-n8:16:32:64-S128"
target triple = "x86_64-pc-linux-gnu"

%struct.ident_t = type { i32, i32, i32, i32, ptr }
%"class.ncnn::Mat" = type { ptr, ptr, i64, i32, ptr, i32, i32, i32, i32, i32, i64 }
%"class.ncnn::Option" = type { i8, i32, ptr, ptr, i32, i8, i8, i8, i8, i8, i8, i8, i8, i8, i8, i8, i8, i8, i8, i8, i8, i8, i8, i8, i8, i32, i8, i8, i8, i8, i8, i8, i8, i8, i8, i8, i8, i8 }

@2 = private unnamed_addr constant %struct.ident_t { i32 0, i32 2, i32 0, i32 22, ptr @0 }, align 8

; Function Attrs: alwaysinline mustprogress nounwind uwtable
define linkonce_odr hidden noundef i64 @_ZNK4ncnn3Mat5totalEv(ptr noundef nonnull align 8 dereferenceable(72) %0) #3 comdat align 2 {
  %2 = alloca ptr, align 8
  store ptr %0, ptr %2, align 8, !tbaa !52
  %3 = load ptr, ptr %2, align 8
  %4 = getelementptr inbounds nuw %"class.ncnn::Mat", ptr %3, i32 0, i32 10
  %5 = load i64, ptr %4, align 8, !tbaa !78
  %6 = getelementptr inbounds nuw %"class.ncnn::Mat", ptr %3, i32 0, i32 9
  %7 = load i32, ptr %6, align 8, !tbaa !77
  %8 = sext i32 %7 to i64
  %9 = mul i64 %5, %8
  ret i64 %9
}

; Function Attrs: alwaysinline mustprogress uwtable
define linkonce_odr hidden noundef zeroext i1 @_ZNK4ncnn3Mat5emptyEv(ptr noundef nonnull align 8 dereferenceable(72) %0) #5 comdat align 2 {
  %2 = alloca ptr, align 8
  store ptr %0, ptr %2, align 8, !tbaa !52
  %3 = load ptr, ptr %2, align 8
  %4 = getelementptr inbounds nuw %"class.ncnn::Mat", ptr %3, i32 0, i32 0
  %5 = load ptr, ptr %4, align 8, !tbaa !71
  %6 = icmp eq ptr %5, null
  br i1 %6, label %10, label %7

7:                                                ; preds = %1
  %8 = call noundef i64 @_ZNK4ncnn3Mat5totalEv(ptr noundef nonnull align 8 dereferenceable(72) %3)
  %9 = icmp eq i64 %8, 0
  br label %10

10:                                               ; preds = %7, %1
  %11 = phi i1 [ true, %1 ], [ %9, %7 ]
  ret i1 %11
}

; Function Attrs: mustprogress uwtable
define internal noundef i32 @_ZN4ncnnL15deconvolution1dERKNS_3MatERS0_S2_S2_iiiiS2_RKNS_6OptionE(ptr noundef nonnull align 8 dereferenceable(72) %0, ptr noundef nonnull align 8 dereferenceable(72) %1, ptr noundef nonnull align 8 dereferenceable(72) %2, ptr noundef nonnull align 8 dereferenceable(72) %3, i32 noundef %4, i32 noundef %5, i32 noundef %6, i32 noundef %7, ptr noundef nonnull align 8 dereferenceable(72) %8, ptr noundef nonnull align 8 dereferenceable(64) %9) #1 {
  %11 = alloca ptr, align 8
  %12 = alloca ptr, align 8
  %13 = alloca ptr, align 8
  %14 = alloca ptr, align 8
  %15 = alloca i32, align 4
  %16 = alloca i32, align 4
  %17 = alloca i32, align 4
  %18 = alloca i32, align 4
  %19 = alloca ptr, align 8
  %20 = alloca ptr, align 8
  %21 = alloca i32, align 4
  %22 = alloca i32, align 4
  %23 = alloca i32, align 4
  %24 = alloca i32, align 4
  %25 = alloca i32, align 4
  %26 = call i32 @__kmpc_global_thread_num(ptr @2)
  store ptr %0, ptr %11, align 8, !tbaa !52
  store ptr %1, ptr %12, align 8, !tbaa !52
  store ptr %2, ptr %13, align 8, !tbaa !52
  store ptr %3, ptr %14, align 8, !tbaa !52
  store i32 %4, ptr %15, align 4, !tbaa !54
  store i32 %5, ptr %16, align 4, !tbaa !54
  store i32 %6, ptr %17, align 4, !tbaa !54
  store i32 %7, ptr %18, align 4, !tbaa !54
  store ptr %8, ptr %19, align 8, !tbaa !52
  store ptr %9, ptr %20, align 8, !tbaa !50
  call void @llvm.lifetime.start.p0(i64 4, ptr %21) #9
  %27 = load ptr, ptr %11, align 8, !tbaa !52
  %28 = getelementptr inbounds nuw %"class.ncnn::Mat", ptr %27, i32 0, i32 6
  %29 = load i32, ptr %28, align 4, !tbaa !55
  store i32 %29, ptr %21, align 4, !tbaa !54
  call void @llvm.lifetime.start.p0(i64 4, ptr %22) #9
  %30 = load ptr, ptr %11, align 8, !tbaa !52
  %31 = getelementptr inbounds nuw %"class.ncnn::Mat", ptr %30, i32 0, i32 7
  %32 = load i32, ptr %31, align 8, !tbaa !53
  store i32 %32, ptr %22, align 4, !tbaa !54
  call void @llvm.lifetime.start.p0(i64 4, ptr %23) #9
  %33 = load ptr, ptr %12, align 8, !tbaa !52
  %34 = getelementptr inbounds nuw %"class.ncnn::Mat", ptr %33, i32 0, i32 6
  %35 = load i32, ptr %34, align 4, !tbaa !55
  store i32 %35, ptr %23, align 4, !tbaa !54
  call void @llvm.lifetime.start.p0(i64 4, ptr %24) #9
  %36 = load ptr, ptr %12, align 8, !tbaa !52
  %37 = getelementptr inbounds nuw %"class.ncnn::Mat", ptr %36, i32 0, i32 7
  %38 = load i32, ptr %37, align 8, !tbaa !53
  store i32 %38, ptr %24, align 4, !tbaa !54
  call void @llvm.lifetime.start.p0(i64 4, ptr %25) #9
  %39 = load ptr, ptr %14, align 8, !tbaa !52
  %40 = call noundef zeroext i1 @_ZNK4ncnn3Mat5emptyEv(ptr noundef nonnull align 8 dereferenceable(72) %39)
  %41 = select i1 %40, i32 0, i32 1
  store i32 %41, ptr %25, align 4, !tbaa !54
  %42 = load ptr, ptr %20, align 8, !tbaa !50
  %43 = getelementptr inbounds nuw %"class.ncnn::Option", ptr %42, i32 0, i32 1
  %44 = load i32, ptr %43, align 4, !tbaa !80
  call void @__kmpc_push_num_threads(ptr @2, i32 %26, i32 %44)
  %45 = load ptr, ptr %12, align 8, !tbaa !52
  %46 = load ptr, ptr %14, align 8, !tbaa !52
  %47 = load ptr, ptr %13, align 8, !tbaa !52
  %48 = load ptr, ptr %11, align 8, !tbaa !52
  %49 = load ptr, ptr %19, align 8, !tbaa !52
  call void (ptr, i32, ptr, ...) @__kmpc_fork_call(ptr @2, i32 14, ptr @_ZN4ncnnL15deconvolution1dERKNS_3MatERS0_S2_S2_iiiiS2_RKNS_6OptionE.omp_outlined, ptr %24, ptr %45, ptr %25, ptr %46, ptr %21, ptr %16, ptr %47, ptr %15, ptr %22, ptr %48, ptr %17, ptr %23, ptr %18, ptr %49)
  call void @llvm.lifetime.end.p0(i64 4, ptr %25) #9
  call void @llvm.lifetime.end.p0(i64 4, ptr %24) #9
  call void @llvm.lifetime.end.p0(i64 4, ptr %23) #9
  call void @llvm.lifetime.end.p0(i64 4, ptr %22) #9
  call void @llvm.lifetime.end.p0(i64 4, ptr %21) #9
  ret i32 0
}