; Function Attrs: mustprogress nounwind uwtable
define internal fastcc void @_ZN4ncnnL15deconvolution1dERKNS_3MatERS0_S2_S2_iiiiS2_RKNS_6OptionE(ptr noundef nonnull align 8 dereferenceable(72) %0, ptr noundef nonnull align 8 dereferenceable(72) %1, ptr noundef nonnull align 8 dereferenceable(72) %2, ptr noundef nonnull align 8 dereferenceable(72) %3, i32 noundef %4, i32 noundef %5, i32 noundef %6, i32 noundef %7, ptr noundef nonnull align 8 dereferenceable(72) %8, ptr noundef nonnull readonly align 8 captures(none) dereferenceable(64) %9) unnamed_addr #8 {
  %11 = alloca i32, align 4
  %12 = alloca i32, align 4
  %13 = alloca i32, align 4
  %14 = alloca i32, align 4
  %15 = alloca i32, align 4
  %16 = alloca i32, align 4
  %17 = alloca i32, align 4
  %18 = alloca i32, align 4
  %19 = alloca i32, align 4
  %20 = tail call i32 @__kmpc_global_thread_num(ptr nonnull @2)
  store i32 %4, ptr %11, align 4, !tbaa !64
  store i32 %5, ptr %12, align 4, !tbaa !64
  store i32 %6, ptr %13, align 4, !tbaa !64
  store i32 %7, ptr %14, align 4, !tbaa !64
  call void @llvm.lifetime.start.p0(i64 4, ptr nonnull %15) #10
  %21 = getelementptr inbounds nuw i8, ptr %0, i64 44
  %22 = load i32, ptr %21, align 4, !tbaa !47
  store i32 %22, ptr %15, align 4, !tbaa !64
  call void @llvm.lifetime.start.p0(i64 4, ptr nonnull %16) #10
  %23 = getelementptr inbounds nuw i8, ptr %0, i64 48
  %24 = load i32, ptr %23, align 8, !tbaa !48
  store i32 %24, ptr %16, align 4, !tbaa !64
  call void @llvm.lifetime.start.p0(i64 4, ptr nonnull %17) #10
  %25 = getelementptr inbounds nuw i8, ptr %1, i64 44
  %26 = load i32, ptr %25, align 4, !tbaa !47
  store i32 %26, ptr %17, align 4, !tbaa !64
  call void @llvm.lifetime.start.p0(i64 4, ptr nonnull %18) #10
  %27 = getelementptr inbounds nuw i8, ptr %1, i64 48
  %28 = load i32, ptr %27, align 8, !tbaa !48
  store i32 %28, ptr %18, align 4, !tbaa !64
  call void @llvm.lifetime.start.p0(i64 4, ptr nonnull %19) #10
  %29 = load ptr, ptr %3, align 8, !tbaa !16
  %30 = icmp eq ptr %29, null
  br i1 %30, label %_ZNK4ncnn3Mat5emptyEv.exit, label %31

31:                                               ; preds = %10
  %32 = getelementptr inbounds nuw i8, ptr %3, i64 64
  %33 = load i64, ptr %32, align 8, !tbaa !17
  %34 = getelementptr inbounds nuw i8, ptr %3, i64 56
  %35 = load i32, ptr %34, align 8, !tbaa !50
  %36 = sext i32 %35 to i64
  %37 = mul i64 %33, %36
  %38 = icmp ne i64 %37, 0
  %39 = zext i1 %38 to i32
  br label %_ZNK4ncnn3Mat5emptyEv.exit

_ZNK4ncnn3Mat5emptyEv.exit:                       ; preds = %10, %31
  %not. = phi i32 [ 0, %10 ], [ %39, %31 ]
  store i32 %not., ptr %19, align 4, !tbaa !64
  %40 = getelementptr inbounds nuw i8, ptr %9, i64 4
  %41 = load i32, ptr %40, align 4, !tbaa !65
  tail call void @__kmpc_push_num_threads(ptr nonnull @2, i32 %20, i32 %41)
  call void (ptr, i32, ptr, ...) @__kmpc_fork_call(ptr nonnull @2, i32 14, ptr nonnull @_ZN4ncnnL15deconvolution1dERKNS_3MatERS0_S2_S2_iiiiS2_RKNS_6OptionE.omp_outlined, ptr nonnull %18, ptr nonnull %1, ptr nonnull %19, ptr nonnull %3, ptr nonnull %15, ptr nonnull %12, ptr nonnull %2, ptr nonnull %11, ptr nonnull %16, ptr nonnull %0, ptr nonnull %13, ptr nonnull %17, ptr nonnull %14, ptr nonnull %8)
  call void @llvm.lifetime.end.p0(i64 4, ptr nonnull %19) #10
  call void @llvm.lifetime.end.p0(i64 4, ptr nonnull %18) #10
  call void @llvm.lifetime.end.p0(i64 4, ptr nonnull %17) #10
  call void @llvm.lifetime.end.p0(i64 4, ptr nonnull %16) #10
  call void @llvm.lifetime.end.p0(i64 4, ptr nonnull %15) #10
  ret void
}